; Function Attrs: nounwind sspstrong uwtable
define internal noundef i64 @p_sys_setregid(i64 %0, i64 noundef %1, i64 noundef %2) #1 {
  %4 = alloca i64, align 8
  %5 = alloca i64, align 8
  %.b.i = load i1, ptr @under_gid_switch, align 4
  br i1 %.b.i, label %6, label %check_gid_switch.exit

6:                                                ; preds = %3
  %7 = load i64, ptr @rb_eRuntimeError, align 8, !tbaa !43
  tail call void (i64, ptr, ...) @rb_raise(i64 noundef %7, ptr noundef nonnull @.str.229) #29
  unreachable

check_gid_switch.exit:                            ; preds = %3
  call void @llvm.lifetime.start.p0(i64 8, ptr nonnull %5) #27
  store i64 0, ptr %5, align 8, !tbaa !43
  %8 = call fastcc i32 @obj2gid(i64 noundef %1, ptr noundef %5)
  %9 = load i64, ptr %5, align 8, !tbaa !43
  %.not.i = icmp eq i64 %9, 0
  br i1 %.not.i, label %obj2gid0.exit, label %10

10:                                               ; preds = %check_gid_switch.exit
  %11 = tail call i64 @rb_str_resize(i64 noundef %9, i64 noundef 0) #27
  br label %obj2gid0.exit

obj2gid0.exit:                                    ; preds = %check_gid_switch.exit, %10
  call void @llvm.lifetime.end.p0(i64 8, ptr nonnull %5) #27
  call void @llvm.lifetime.start.p0(i64 8, ptr nonnull %4) #27
  store i64 0, ptr %4, align 8, !tbaa !43
  %12 = call fastcc i32 @obj2gid(i64 noundef %2, ptr noundef %4)
  %13 = load i64, ptr %4, align 8, !tbaa !43
  %.not.i5 = icmp eq i64 %13, 0
  br i1 %.not.i5, label %obj2gid0.exit6, label %14

14:                                               ; preds = %obj2gid0.exit
  %15 = tail call i64 @rb_str_resize(i64 noundef %13, i64 noundef 0) #27
  br label %obj2gid0.exit6

obj2gid0.exit6:                                   ; preds = %obj2gid0.exit, %14
  call void @llvm.lifetime.end.p0(i64 8, ptr nonnull %4) #27
  %16 = tail call i32 @setregid(i32 noundef %8, i32 noundef %12) #27
  %.not = icmp eq i32 %16, 0
  br i1 %.not, label %20, label %17

17:                                               ; preds = %obj2gid0.exit6
  %18 = tail call ptr @rb_errno_ptr() #27
  %19 = load i32, ptr %18, align 4, !tbaa !60
  tail call void @rb_syserr_fail(i32 noundef %19, ptr noundef null) #29
  unreachable

20:                                               ; preds = %obj2gid0.exit6
  ret i64 4
}